target datalayout = "e-m:e-p270:32:32-p271:32:32-p272:64:64-i64:64-i128:128-f80:128-n8:16:32:64-S128"
target triple = "x86_64-pc-linux-gnu"

@mainctx = internal global ptr null, align 8
@.str.28 = private unnamed_addr constant [34 x i8] c"../openssl/test/evp_extra_test2.c\00", align 1
@.str.57 = private unnamed_addr constant [2 x i8] c"1\00", align 1
@.str.123 = private unnamed_addr constant [54 x i8] c"ctx = EVP_PKEY_CTX_new_from_name(mainctx, type, NULL)\00", align 1
@.str.124 = private unnamed_addr constant [28 x i8] c"EVP_PKEY_fromdata_init(ctx)\00", align 1
@.str.125 = private unnamed_addr constant [70 x i8] c"EVP_PKEY_fromdata(ctx, &pkey, EVP_PKEY_KEYPAIR, (OSSL_PARAM *)params)\00", align 1
@.str.126 = private unnamed_addr constant [28 x i8] c"EVP_PKEY_eq(pkey, expected)\00", align 1

; Function Attrs: nounwind uwtable
define internal i32 @do_fromdata_key_is_equal(ptr noundef %0, ptr noundef %1, ptr noundef %2) #0 {
  %4 = alloca ptr, align 8
  %5 = alloca ptr, align 8
  %6 = alloca ptr, align 8
  %7 = alloca ptr, align 8
  %8 = alloca ptr, align 8
  %9 = alloca i32, align 4
  store ptr %0, ptr %4, align 8, !tbaa !35
  store ptr %1, ptr %5, align 8, !tbaa !13
  store ptr %2, ptr %6, align 8, !tbaa !21
  call void @llvm.lifetime.start.p0(i64 8, ptr %7) #7
  store ptr null, ptr %7, align 8, !tbaa !29
  call void @llvm.lifetime.start.p0(i64 8, ptr %8) #7
  store ptr null, ptr %8, align 8, !tbaa !13
  call void @llvm.lifetime.start.p0(i64 4, ptr %9) #7
  %10 = load ptr, ptr @mainctx, align 8, !tbaa !4
  %11 = load ptr, ptr %6, align 8, !tbaa !21
  %12 = call ptr @EVP_PKEY_CTX_new_from_name(ptr noundef %10, ptr noundef %11, ptr noundef null)
  store ptr %12, ptr %7, align 8, !tbaa !29
  %13 = call i32 @test_ptr(ptr noundef @.str.28, i32 noundef 870, ptr noundef @.str.123, ptr noundef %12)
  %14 = icmp ne i32 %13, 0
  br i1 %14, label %15, label %34

15:                                               ; preds = %3
  %16 = load ptr, ptr %7, align 8, !tbaa !29
  %17 = call i32 @EVP_PKEY_fromdata_init(ptr noundef %16)
  %18 = call i32 @test_int_eq(ptr noundef @.str.28, i32 noundef 871, ptr noundef @.str.124, ptr noundef @.str.57, i32 noundef %17, i32 noundef 1)
  %19 = icmp ne i32 %18, 0
  br i1 %19, label %20, label %34

20:                                               ; preds = %15
  %21 = load ptr, ptr %7, align 8, !tbaa !29
  %22 = load ptr, ptr %4, align 8, !tbaa !35
  %23 = call i32 @EVP_PKEY_fromdata(ptr noundef %21, ptr noundef %8, i32 noundef 135, ptr noundef %22)
  %24 = call i32 @test_int_eq(ptr noundef @.str.28, i32 noundef 874, ptr noundef @.str.125, ptr noundef @.str.57, i32 noundef %23, i32 noundef 1)
  %25 = icmp ne i32 %24, 0
  br i1 %25, label %26, label %34

26:                                               ; preds = %20
  %27 = load ptr, ptr %8, align 8, !tbaa !13
  %28 = load ptr, ptr %5, align 8, !tbaa !13
  %29 = call i32 @EVP_PKEY_eq(ptr noundef %27, ptr noundef %28)
  %30 = icmp ne i32 %29, 0
  %31 = zext i1 %30 to i32
  %32 = call i32 @test_true(ptr noundef @.str.28, i32 noundef 875, ptr noundef @.str.126, i32 noundef %31)
  %33 = icmp ne i32 %32, 0
  br label %34

34:                                               ; preds = %26, %20, %15, %3
  %35 = phi i1 [ false, %20 ], [ false, %15 ], [ false, %3 ], [ %33, %26 ]
  %36 = zext i1 %35 to i32
  store i32 %36, ptr %9, align 4, !tbaa !11
  %37 = load ptr, ptr %7, align 8, !tbaa !29
  call void @EVP_PKEY_CTX_free(ptr noundef %37)
  %38 = load ptr, ptr %8, align 8, !tbaa !13
  call void @EVP_PKEY_free(ptr noundef %38)
  %39 = load i32, ptr %9, align 4, !tbaa !11
  call void @llvm.lifetime.end.p0(i64 4, ptr %9) #7
  call void @llvm.lifetime.end.p0(i64 8, ptr %8) #7
  call void @llvm.lifetime.end.p0(i64 8, ptr %7) #7
  ret i32 %39
}