; Function Attrs: nounwind uwtable
define internal fastcc range(i32 0, 2) i32 @do_fromdata_key_is_equal(ptr noundef %0, ptr noundef %1, ptr noundef %2) unnamed_addr #0 {
  %4 = alloca ptr, align 8
  call void @llvm.lifetime.start.p0(i64 8, ptr nonnull %4) #7
  store ptr null, ptr %4, align 8, !tbaa !26
  %5 = load ptr, ptr @mainctx, align 8, !tbaa !4
  %6 = tail call ptr @EVP_PKEY_CTX_new_from_name(ptr noundef %5, ptr noundef %2, ptr noundef null) #7
  %7 = tail call i32 @test_ptr(ptr noundef nonnull @.str.28, i32 noundef 870, ptr noundef nonnull @.str.123, ptr noundef %6) #7
  %.not = icmp eq i32 %7, 0
  br i1 %.not, label %22, label %8

8:                                                ; preds = %3
  %9 = tail call i32 @EVP_PKEY_fromdata_init(ptr noundef %6) #7
  %10 = tail call i32 @test_int_eq(ptr noundef nonnull @.str.28, i32 noundef 871, ptr noundef nonnull @.str.124, ptr noundef nonnull @.str.57, i32 noundef %9, i32 noundef 1) #7
  %.not6 = icmp eq i32 %10, 0
  br i1 %.not6, label %22, label %11

11:                                               ; preds = %8
  %12 = call i32 @EVP_PKEY_fromdata(ptr noundef %6, ptr noundef nonnull %4, i32 noundef 135, ptr noundef %0) #7
  %13 = call i32 @test_int_eq(ptr noundef nonnull @.str.28, i32 noundef 874, ptr noundef nonnull @.str.125, ptr noundef nonnull @.str.57, i32 noundef %12, i32 noundef 1) #7
  %.not7 = icmp eq i32 %13, 0
  br i1 %.not7, label %22, label %14

14:                                               ; preds = %11
  %15 = load ptr, ptr %4, align 8, !tbaa !26
  %16 = call i32 @EVP_PKEY_eq(ptr noundef %15, ptr noundef %1) #7
  %17 = icmp ne i32 %16, 0
  %18 = zext i1 %17 to i32
  %19 = call i32 @test_true(ptr noundef nonnull @.str.28, i32 noundef 875, ptr noundef nonnull @.str.126, i32 noundef %18) #7
  %20 = icmp ne i32 %19, 0
  %21 = zext i1 %20 to i32
  br label %22

22:                                               ; preds = %14, %11, %8, %3
  %23 = phi i32 [ 0, %11 ], [ 0, %8 ], [ 0, %3 ], [ %21, %14 ]
  call void @EVP_PKEY_CTX_free(ptr noundef %6) #7
  %24 = load ptr, ptr %4, align 8, !tbaa !26
  call void @EVP_PKEY_free(ptr noundef %24) #7
  call void @llvm.lifetime.end.p0(i64 8, ptr nonnull %4) #7
  ret i32 %23
}